target datalayout = "e-m:e-p270:32:32-p271:32:32-p272:64:64-i64:64-i128:128-f80:128-n8:16:32:64-S128"
target triple = "x86_64-pc-linux-gnu"

@H5G_init_g = external global i8, align 1
@H5_libterm_g = external global i8, align 1
@.str = private unnamed_addr constant [105 x i8] c"generated/home/dtcxzyw/WorkSpace/Projects/compilers/llvm-opt-benchmark/bench/hdf5/hdf5/src/H5Gtraverse.c\00", align 1
@H5E_CANTGET_g = external global i64, align 8
@.str.1 = private unnamed_addr constant [52 x i8] c"unable to retrieve # of soft / UD links to traverse\00", align 1
@H5E_CANTSET_g = external global i64, align 8
@H5E_SYM_g = external global i64, align 8
@H5E_NOTFOUND_g = external global i64, align 8
@__func__.H5G_traverse = private unnamed_addr constant [13 x i8] c"H5G_traverse\00", align 1
@H5E_FUNC_g = external global i64, align 8
@H5E_CANTINIT_g = external global i64, align 8
@.str.8 = private unnamed_addr constant [32 x i8] c"interface initialization failed\00", align 1
@.str.9 = private unnamed_addr constant [14 x i8] c"no name given\00", align 1
@.str.10 = private unnamed_addr constant [21 x i8] c"no starting location\00", align 1
@.str.11 = private unnamed_addr constant [22 x i8] c"no operation provided\00", align 1
@.str.12 = private unnamed_addr constant [31 x i8] c"internal path traversal failed\00", align 1
@.str.13 = private unnamed_addr constant [45 x i8] c"can't reset # of soft / UD links to traverse\00", align 1

; Function Attrs: nounwind uwtable
define i32 @H5G_traverse(ptr noundef %0, ptr noundef %1, i32 noundef %2, ptr noundef %3, ptr noundef %4) #0 {
  %6 = alloca i32, align 4
  %7 = alloca ptr, align 8
  %8 = alloca ptr, align 8
  %9 = alloca i32, align 4
  %10 = alloca ptr, align 8
  %11 = alloca ptr, align 8
  %12 = alloca i64, align 8
  %13 = alloca i32, align 4
  %14 = alloca i8, align 1
  %15 = alloca i64, align 8
  %16 = alloca i32, align 4
  store ptr %0, ptr %7, align 8, !tbaa !3
  store ptr %1, ptr %8, align 8, !tbaa !45
  store i32 %2, ptr %9, align 4, !tbaa !10
  store ptr %3, ptr %10, align 8, !tbaa !38
  store ptr %4, ptr %11, align 8, !tbaa !38
  call void @llvm.lifetime.start.p0(i64 8, ptr %12) #7
  call void @llvm.lifetime.start.p0(i64 4, ptr %13) #7
  store i32 0, ptr %13, align 4, !tbaa !10
  call void @llvm.lifetime.start.p0(i64 1, ptr %14) #7
  store i8 0, ptr %14, align 1, !tbaa !12
  %17 = load i8, ptr @H5G_init_g, align 1, !tbaa !12, !range !16, !noundef !17
  %18 = trunc i8 %17 to i1
  br i1 %18, label %23, label %19

19:                                               ; preds = %5
  %20 = load i8, ptr @H5_libterm_g, align 1, !tbaa !12, !range !16, !noundef !17
  %21 = trunc i8 %20 to i1
  %22 = xor i1 %21, true
  br label %23

23:                                               ; preds = %19, %5
  %24 = phi i1 [ false, %5 ], [ %22, %19 ]
  %25 = xor i1 %24, true
  %26 = xor i1 %25, true
  %27 = zext i1 %26 to i32
  %28 = sext i32 %27 to i64
  %29 = call i64 @llvm.expect.i64(i64 %28, i64 0)
  %30 = icmp ne i64 %29, 0
  br i1 %30, label %31, label %54

31:                                               ; preds = %23
  store i8 1, ptr @H5G_init_g, align 1, !tbaa !12
  %32 = call i32 @H5G__init_package()
  %33 = icmp slt i32 %32, 0
  br i1 %33, label %34, label %53

34:                                               ; preds = %31
  store i8 0, ptr @H5G_init_g, align 1, !tbaa !12
  br label %35

35:                                               ; preds = %34
  br label %36

36:                                               ; preds = %35
  br label %37

37:                                               ; preds = %36
  %38 = load i64, ptr @H5E_FUNC_g, align 8, !tbaa !22
  %39 = load i64, ptr @H5E_CANTINIT_g, align 8, !tbaa !22
  %40 = call i32 (ptr, ptr, i32, i64, i64, ptr, ...) @H5E_printf_stack(ptr noundef @.str, ptr noundef @__func__.H5G_traverse, i32 noundef 817, i64 noundef %38, i64 noundef %39, ptr noundef @.str.8)
  br label %41

41:                                               ; preds = %37
  br label %42

42:                                               ; preds = %41
  store i8 1, ptr %14, align 1, !tbaa !12
  %43 = load i8, ptr %14, align 1, !tbaa !12, !range !16, !noundef !17
  %44 = trunc i8 %43 to i1
  %45 = zext i1 %44 to i8
  store i8 %45, ptr %14, align 1, !tbaa !12
  br label %46

46:                                               ; preds = %42
  br label %47

47:                                               ; preds = %46
  br label %48

48:                                               ; preds = %47
  store i32 -1, ptr %13, align 4, !tbaa !10
  br label %217

49:                                               ; No predecessors!
  br label %50

50:                                               ; preds = %49
  br label %51

51:                                               ; preds = %50
  br label %52

52:                                               ; preds = %51
  br label %53

53:                                               ; preds = %52, %31
  br label %54

54:                                               ; preds = %53, %23
  %55 = load i8, ptr @H5G_init_g, align 1, !tbaa !12, !range !16, !noundef !17
  %56 = trunc i8 %55 to i1
  br i1 %56, label %61, label %57

57:                                               ; preds = %54
  %58 = load i8, ptr @H5_libterm_g, align 1, !tbaa !12, !range !16, !noundef !17
  %59 = trunc i8 %58 to i1
  %60 = xor i1 %59, true
  br label %61

61:                                               ; preds = %57, %54
  %62 = phi i1 [ true, %54 ], [ %60, %57 ]
  %63 = xor i1 %62, true
  %64 = xor i1 %63, true
  %65 = zext i1 %64 to i32
  %66 = sext i32 %65 to i64
  %67 = call i64 @llvm.expect.i64(i64 %66, i64 1)
  %68 = icmp ne i64 %67, 0
  br i1 %68, label %69, label %218

69:                                               ; preds = %61
  %70 = load ptr, ptr %8, align 8, !tbaa !45
  %71 = icmp ne ptr %70, null
  br i1 %71, label %72, label %76

72:                                               ; preds = %69
  %73 = load ptr, ptr %8, align 8, !tbaa !45
  %74 = load i8, ptr %73, align 1, !tbaa !37
  %75 = icmp ne i8 %74, 0
  br i1 %75, label %95, label %76

76:                                               ; preds = %72, %69
  br label %77

77:                                               ; preds = %76
  br label %78

78:                                               ; preds = %77
  br label %79

79:                                               ; preds = %78
  %80 = load i64, ptr @H5E_SYM_g, align 8, !tbaa !22
  %81 = load i64, ptr @H5E_NOTFOUND_g, align 8, !tbaa !22
  %82 = call i32 (ptr, ptr, i32, i64, i64, ptr, ...) @H5E_printf_stack(ptr noundef @.str, ptr noundef @__func__.H5G_traverse, i32 noundef 821, i64 noundef %80, i64 noundef %81, ptr noundef @.str.9)
  br label %83

83:                                               ; preds = %79
  br label %84

84:                                               ; preds = %83
  store i8 1, ptr %14, align 1, !tbaa !12
  %85 = load i8, ptr %14, align 1, !tbaa !12, !range !16, !noundef !17
  %86 = trunc i8 %85 to i1
  %87 = zext i1 %86 to i8
  store i8 %87, ptr %14, align 1, !tbaa !12
  br label %88

88:                                               ; preds = %84
  br label %89

89:                                               ; preds = %88
  br label %90

90:                                               ; preds = %89
  store i32 -1, ptr %13, align 4, !tbaa !10
  br label %217

91:                                               ; No predecessors!
  br label %92

92:                                               ; preds = %91
  br label %93

93:                                               ; preds = %92
  br label %94

94:                                               ; preds = %93
  br label %95

95:                                               ; preds = %94, %72
  %96 = load ptr, ptr %7, align 8, !tbaa !3
  %97 = icmp ne ptr %96, null
  br i1 %97, label %117, label %98

98:                                               ; preds = %95
  br label %99

99:                                               ; preds = %98
  br label %100

100:                                              ; preds = %99
  br label %101

101:                                              ; preds = %100
  %102 = load i64, ptr @H5E_SYM_g, align 8, !tbaa !22
  %103 = load i64, ptr @H5E_NOTFOUND_g, align 8, !tbaa !22
  %104 = call i32 (ptr, ptr, i32, i64, i64, ptr, ...) @H5E_printf_stack(ptr noundef @.str, ptr noundef @__func__.H5G_traverse, i32 noundef 823, i64 noundef %102, i64 noundef %103, ptr noundef @.str.10)
  br label %105

105:                                              ; preds = %101
  br label %106

106:                                              ; preds = %105
  store i8 1, ptr %14, align 1, !tbaa !12
  %107 = load i8, ptr %14, align 1, !tbaa !12, !range !16, !noundef !17
  %108 = trunc i8 %107 to i1
  %109 = zext i1 %108 to i8
  store i8 %109, ptr %14, align 1, !tbaa !12
  br label %110

110:                                              ; preds = %106
  br label %111

111:                                              ; preds = %110
  br label %112

112:                                              ; preds = %111
  store i32 -1, ptr %13, align 4, !tbaa !10
  br label %217

113:                                              ; No predecessors!
  br label %114

114:                                              ; preds = %113
  br label %115

115:                                              ; preds = %114
  br label %116

116:                                              ; preds = %115
  br label %117

117:                                              ; preds = %116, %95
  %118 = load ptr, ptr %10, align 8, !tbaa !38
  %119 = icmp ne ptr %118, null
  br i1 %119, label %139, label %120

120:                                              ; preds = %117
  br label %121

121:                                              ; preds = %120
  br label %122

122:                                              ; preds = %121
  br label %123

123:                                              ; preds = %122
  %124 = load i64, ptr @H5E_SYM_g, align 8, !tbaa !22
  %125 = load i64, ptr @H5E_NOTFOUND_g, align 8, !tbaa !22
  %126 = call i32 (ptr, ptr, i32, i64, i64, ptr, ...) @H5E_printf_stack(ptr noundef @.str, ptr noundef @__func__.H5G_traverse, i32 noundef 825, i64 noundef %124, i64 noundef %125, ptr noundef @.str.11)
  br label %127

127:                                              ; preds = %123
  br label %128

128:                                              ; preds = %127
  store i8 1, ptr %14, align 1, !tbaa !12
  %129 = load i8, ptr %14, align 1, !tbaa !12, !range !16, !noundef !17
  %130 = trunc i8 %129 to i1
  %131 = zext i1 %130 to i8
  store i8 %131, ptr %14, align 1, !tbaa !12
  br label %132

132:                                              ; preds = %128
  br label %133

133:                                              ; preds = %132
  br label %134

134:                                              ; preds = %133
  store i32 -1, ptr %13, align 4, !tbaa !10
  br label %217

135:                                              ; No predecessors!
  br label %136

136:                                              ; preds = %135
  br label %137

137:                                              ; preds = %136
  br label %138

138:                                              ; preds = %137
  br label %139

139:                                              ; preds = %138, %117
  %140 = call i32 @H5CX_get_nlinks(ptr noundef %12)
  %141 = icmp slt i32 %140, 0
  br i1 %141, label %142, label %161

142:                                              ; preds = %139
  br label %143

143:                                              ; preds = %142
  br label %144

144:                                              ; preds = %143
  br label %145

145:                                              ; preds = %144
  %146 = load i64, ptr @H5E_SYM_g, align 8, !tbaa !22
  %147 = load i64, ptr @H5E_CANTGET_g, align 8, !tbaa !22
  %148 = call i32 (ptr, ptr, i32, i64, i64, ptr, ...) @H5E_printf_stack(ptr noundef @.str, ptr noundef @__func__.H5G_traverse, i32 noundef 833, i64 noundef %146, i64 noundef %147, ptr noundef @.str.1)
  br label %149

149:                                              ; preds = %145
  br label %150

150:                                              ; preds = %149
  store i8 1, ptr %14, align 1, !tbaa !12
  %151 = load i8, ptr %14, align 1, !tbaa !12, !range !16, !noundef !17
  %152 = trunc i8 %151 to i1
  %153 = zext i1 %152 to i8
  store i8 %153, ptr %14, align 1, !tbaa !12
  br label %154

154:                                              ; preds = %150
  br label %155

155:                                              ; preds = %154
  br label %156

156:                                              ; preds = %155
  store i32 -1, ptr %13, align 4, !tbaa !10
  br label %217

157:                                              ; No predecessors!
  br label %158

158:                                              ; preds = %157
  br label %159

159:                                              ; preds = %158
  br label %160

160:                                              ; preds = %159
  br label %161

161:                                              ; preds = %160, %139
  call void @llvm.lifetime.start.p0(i64 8, ptr %15) #7
  store i64 -1, ptr %15, align 8, !tbaa !22
  call void @H5AC_tag(i64 noundef 0, ptr noundef %15)
  %162 = load ptr, ptr %7, align 8, !tbaa !3
  %163 = load ptr, ptr %8, align 8, !tbaa !45
  %164 = load i32, ptr %9, align 4, !tbaa !10
  %165 = load ptr, ptr %10, align 8, !tbaa !38
  %166 = load ptr, ptr %11, align 8, !tbaa !38
  %167 = call i32 @H5G__traverse_real(ptr noundef %162, ptr noundef %163, i32 noundef %164, ptr noundef %165, ptr noundef %166)
  %168 = icmp slt i32 %167, 0
  br i1 %168, label %169, label %189

169:                                              ; preds = %161
  br label %170

170:                                              ; preds = %169
  %171 = load i64, ptr %15, align 8, !tbaa !22
  call void @H5AC_tag(i64 noundef %171, ptr noundef null)
  br label %172

172:                                              ; preds = %170
  br label %173

173:                                              ; preds = %172
  %174 = load i64, ptr @H5E_SYM_g, align 8, !tbaa !22
  %175 = load i64, ptr @H5E_NOTFOUND_g, align 8, !tbaa !22
  %176 = call i32 (ptr, ptr, i32, i64, i64, ptr, ...) @H5E_printf_stack(ptr noundef @.str, ptr noundef @__func__.H5G_traverse, i32 noundef 846, i64 noundef %174, i64 noundef %175, ptr noundef @.str.12)
  br label %177

177:                                              ; preds = %173
  br label %178

178:                                              ; preds = %177
  store i8 1, ptr %14, align 1, !tbaa !12
  %179 = load i8, ptr %14, align 1, !tbaa !12, !range !16, !noundef !17
  %180 = trunc i8 %179 to i1
  %181 = zext i1 %180 to i8
  store i8 %181, ptr %14, align 1, !tbaa !12
  br label %182

182:                                              ; preds = %178
  br label %183

183:                                              ; preds = %182
  br label %184

184:                                              ; preds = %183
  store i32 -1, ptr %13, align 4, !tbaa !10
  store i32 10, ptr %16, align 4
  br label %191

185:                                              ; No predecessors!
  br label %186

186:                                              ; preds = %185
  br label %187

187:                                              ; preds = %186
  br label %188

188:                                              ; preds = %187
  br label %189

189:                                              ; preds = %188, %161
  %190 = load i64, ptr %15, align 8, !tbaa !22
  call void @H5AC_tag(i64 noundef %190, ptr noundef null)
  store i32 0, ptr %16, align 4
  br label %191

191:                                              ; preds = %184, %189
  call void @llvm.lifetime.end.p0(i64 8, ptr %15) #7
  %192 = load i32, ptr %16, align 4
  switch i32 %192, label %220 [
    i32 0, label %193
    i32 10, label %217
  ]

193:                                              ; preds = %191
  %194 = load i64, ptr %12, align 8, !tbaa !22
  %195 = call i32 @H5CX_set_nlinks(i64 noundef %194)
  %196 = icmp slt i32 %195, 0
  br i1 %196, label %197, label %216

197:                                              ; preds = %193
  br label %198

198:                                              ; preds = %197
  br label %199

199:                                              ; preds = %198
  br label %200

200:                                              ; preds = %199
  %201 = load i64, ptr @H5E_SYM_g, align 8, !tbaa !22
  %202 = load i64, ptr @H5E_CANTSET_g, align 8, !tbaa !22
  %203 = call i32 (ptr, ptr, i32, i64, i64, ptr, ...) @H5E_printf_stack(ptr noundef @.str, ptr noundef @__func__.H5G_traverse, i32 noundef 853, i64 noundef %201, i64 noundef %202, ptr noundef @.str.13)
  br label %204

204:                                              ; preds = %200
  br label %205

205:                                              ; preds = %204
  store i8 1, ptr %14, align 1, !tbaa !12
  %206 = load i8, ptr %14, align 1, !tbaa !12, !range !16, !noundef !17
  %207 = trunc i8 %206 to i1
  %208 = zext i1 %207 to i8
  store i8 %208, ptr %14, align 1, !tbaa !12
  br label %209

209:                                              ; preds = %205
  br label %210

210:                                              ; preds = %209
  br label %211

211:                                              ; preds = %210
  store i32 -1, ptr %13, align 4, !tbaa !10
  br label %217

212:                                              ; No predecessors!
  br label %213

213:                                              ; preds = %212
  br label %214

214:                                              ; preds = %213
  br label %215

215:                                              ; preds = %214
  br label %216

216:                                              ; preds = %215, %193
  br label %217

217:                                              ; preds = %216, %191, %211, %156, %134, %112, %90, %48
  br label %218

218:                                              ; preds = %217, %61
  %219 = load i32, ptr %13, align 4, !tbaa !10
  store i32 %219, ptr %6, align 4
  store i32 1, ptr %16, align 4
  br label %220

220:                                              ; preds = %218, %191
  call void @llvm.lifetime.end.p0(i64 1, ptr %14) #7
  call void @llvm.lifetime.end.p0(i64 4, ptr %13) #7
  call void @llvm.lifetime.end.p0(i64 8, ptr %12) #7
  %221 = load i32, ptr %6, align 4
  ret i32 %221
}