; Function Attrs: nounwind uwtable
define range(i32 -1, 1) i32 @H5G_traverse(ptr noundef readonly captures(address_is_null) %0, ptr noundef %1, i32 noundef %2, ptr noundef readonly captures(address_is_null) %3, ptr noundef %4) local_unnamed_addr #0 {
  %6 = alloca i64, align 8
  %7 = alloca i64, align 8
  call void @llvm.lifetime.start.p0(i64 8, ptr nonnull %6) #6
  %8 = load i8, ptr @H5G_init_g, align 1, !tbaa !3, !range !7, !noundef !8
  %9 = trunc nuw i8 %8 to i1
  %10 = load i8, ptr @H5_libterm_g, align 1, !range !7
  %11 = trunc nuw i8 %10 to i1
  %12 = select i1 %9, i1 true, i1 %11
  br i1 %12, label %20, label %13, !prof !9

13:                                               ; preds = %5
  store i8 1, ptr @H5G_init_g, align 1, !tbaa !3
  %14 = tail call i32 @H5G__init_package() #6
  %15 = icmp slt i32 %14, 0
  br i1 %15, label %16, label %._crit_edge

._crit_edge:                                      ; preds = %13
  %.pre = load i8, ptr @H5G_init_g, align 1, !tbaa !3, !range !7
  %.pre30 = load i8, ptr @H5_libterm_g, align 1, !range !7
  %.pre31 = trunc nuw i8 %.pre to i1
  %.pre32 = trunc nuw i8 %.pre30 to i1
  br label %20

16:                                               ; preds = %13
  store i8 0, ptr @H5G_init_g, align 1, !tbaa !3
  %17 = load i64, ptr @H5E_FUNC_g, align 8, !tbaa !16
  %18 = load i64, ptr @H5E_CANTINIT_g, align 8, !tbaa !16
  %19 = tail call i32 (ptr, ptr, i32, i64, i64, ptr, ...) @H5E_printf_stack(ptr noundef nonnull @.str, ptr noundef nonnull @__func__.H5G_traverse, i32 noundef 817, i64 noundef %17, i64 noundef %18, ptr noundef nonnull @.str.8) #6
  br label %63

20:                                               ; preds = %._crit_edge, %5
  %.pre-phi33 = phi i1 [ %.pre32, %._crit_edge ], [ %11, %5 ]
  %.pre-phi = phi i1 [ %.pre31, %._crit_edge ], [ %9, %5 ]
  %21 = xor i1 %.pre-phi33, true
  %22 = select i1 %.pre-phi, i1 true, i1 %21
  br i1 %22, label %23, label %63, !prof !9

23:                                               ; preds = %20
  %.not = icmp eq ptr %1, null
  br i1 %.not, label %26, label %24

24:                                               ; preds = %23
  %25 = load i8, ptr %1, align 1, !tbaa !27
  %.not23 = icmp eq i8 %25, 0
  br i1 %.not23, label %26, label %30

26:                                               ; preds = %23, %24
  %27 = load i64, ptr @H5E_SYM_g, align 8, !tbaa !16
  %28 = load i64, ptr @H5E_NOTFOUND_g, align 8, !tbaa !16
  %29 = tail call i32 (ptr, ptr, i32, i64, i64, ptr, ...) @H5E_printf_stack(ptr noundef nonnull @.str, ptr noundef nonnull @__func__.H5G_traverse, i32 noundef 821, i64 noundef %27, i64 noundef %28, ptr noundef nonnull @.str.9) #6
  br label %63

30:                                               ; preds = %24
  %.not24 = icmp eq ptr %0, null
  br i1 %.not24, label %31, label %35

31:                                               ; preds = %30
  %32 = load i64, ptr @H5E_SYM_g, align 8, !tbaa !16
  %33 = load i64, ptr @H5E_NOTFOUND_g, align 8, !tbaa !16
  %34 = tail call i32 (ptr, ptr, i32, i64, i64, ptr, ...) @H5E_printf_stack(ptr noundef nonnull @.str, ptr noundef nonnull @__func__.H5G_traverse, i32 noundef 823, i64 noundef %32, i64 noundef %33, ptr noundef nonnull @.str.10) #6
  br label %63

35:                                               ; preds = %30
  %.not25 = icmp eq ptr %3, null
  br i1 %.not25, label %36, label %40

36:                                               ; preds = %35
  %37 = load i64, ptr @H5E_SYM_g, align 8, !tbaa !16
  %38 = load i64, ptr @H5E_NOTFOUND_g, align 8, !tbaa !16
  %39 = tail call i32 (ptr, ptr, i32, i64, i64, ptr, ...) @H5E_printf_stack(ptr noundef nonnull @.str, ptr noundef nonnull @__func__.H5G_traverse, i32 noundef 825, i64 noundef %37, i64 noundef %38, ptr noundef nonnull @.str.11) #6
  br label %63

40:                                               ; preds = %35
  %41 = call i32 @H5CX_get_nlinks(ptr noundef nonnull %6) #6
  %42 = icmp slt i32 %41, 0
  br i1 %42, label %43, label %47

43:                                               ; preds = %40
  %44 = load i64, ptr @H5E_SYM_g, align 8, !tbaa !16
  %45 = load i64, ptr @H5E_CANTGET_g, align 8, !tbaa !16
  %46 = call i32 (ptr, ptr, i32, i64, i64, ptr, ...) @H5E_printf_stack(ptr noundef nonnull @.str, ptr noundef nonnull @__func__.H5G_traverse, i32 noundef 833, i64 noundef %44, i64 noundef %45, ptr noundef nonnull @.str.1) #6
  br label %63

47:                                               ; preds = %40
  call void @llvm.lifetime.start.p0(i64 8, ptr nonnull %7) #6
  store i64 -1, ptr %7, align 8, !tbaa !16
  call void @H5AC_tag(i64 noundef 0, ptr noundef nonnull %7) #6
  %48 = call fastcc i32 @H5G__traverse_real(ptr noundef %0, ptr noundef nonnull %1, i32 noundef %2, ptr noundef nonnull %3, ptr noundef %4)
  %49 = icmp slt i32 %48, 0
  %50 = load i64, ptr %7, align 8, !tbaa !16
  call void @H5AC_tag(i64 noundef %50, ptr noundef null) #6
  br i1 %49, label %51, label %55

51:                                               ; preds = %47
  %52 = load i64, ptr @H5E_SYM_g, align 8, !tbaa !16
  %53 = load i64, ptr @H5E_NOTFOUND_g, align 8, !tbaa !16
  %54 = call i32 (ptr, ptr, i32, i64, i64, ptr, ...) @H5E_printf_stack(ptr noundef nonnull @.str, ptr noundef nonnull @__func__.H5G_traverse, i32 noundef 846, i64 noundef %52, i64 noundef %53, ptr noundef nonnull @.str.12) #6
  call void @llvm.lifetime.end.p0(i64 8, ptr nonnull %7) #6
  br label %63

55:                                               ; preds = %47
  call void @llvm.lifetime.end.p0(i64 8, ptr nonnull %7) #6
  %56 = load i64, ptr %6, align 8, !tbaa !16
  %57 = call i32 @H5CX_set_nlinks(i64 noundef %56) #6
  %58 = icmp slt i32 %57, 0
  br i1 %58, label %59, label %63

59:                                               ; preds = %55
  %60 = load i64, ptr @H5E_SYM_g, align 8, !tbaa !16
  %61 = load i64, ptr @H5E_CANTSET_g, align 8, !tbaa !16
  %62 = call i32 (ptr, ptr, i32, i64, i64, ptr, ...) @H5E_printf_stack(ptr noundef nonnull @.str, ptr noundef nonnull @__func__.H5G_traverse, i32 noundef 853, i64 noundef %60, i64 noundef %61, ptr noundef nonnull @.str.13) #6
  br label %63

63:                                               ; preds = %51, %20, %55, %59, %43, %36, %31, %26, %16
  %.019 = phi i32 [ -1, %16 ], [ -1, %43 ], [ -1, %51 ], [ -1, %59 ], [ 0, %55 ], [ -1, %36 ], [ -1, %31 ], [ -1, %26 ], [ 0, %20 ]
  call void @llvm.lifetime.end.p0(i64 8, ptr nonnull %6) #6
  ret i32 %.019
}